target datalayout = "e-m:e-p270:32:32-p271:32:32-p272:64:64-i64:64-i128:128-f80:128-n8:16:32:64-S128"
target triple = "x86_64-pc-linux-gnu"

%struct._object = type { %union.anon, ptr }
%union.anon = type { i64 }
%struct.PyVarObject = type { %struct._object, i64 }
%struct.anon = type { i32, i32 }
%struct.PySocketSockObject = type { %struct._object, i32, i32, i32, i32, ptr, i64, ptr }
%struct.PyBytesObject = type { %struct.PyVarObject, i64, [1 x i8] }

@PyExc_OSError = external global ptr, align 8
@.str.601 = private unnamed_addr constant [16 x i8] c"ii|i:getsockopt\00", align 1
@.str.602 = private unnamed_addr constant [37 x i8] c"getsockopt string buffer not allowed\00", align 1
@.str.603 = private unnamed_addr constant [31 x i8] c"getsockopt buflen out of range\00", align 1

; Function Attrs: alwaysinline nounwind uwtable
define internal i32 @_Py_IsImmortal(ptr noundef %0) #8 {
  %2 = alloca ptr, align 8
  store ptr %0, ptr %2, align 8, !tbaa !3
  %3 = load ptr, ptr %2, align 8, !tbaa !3
  %4 = getelementptr inbounds nuw %struct._object, ptr %3, i32 0, i32 0
  %5 = getelementptr inbounds nuw %struct.anon, ptr %4, i32 0, i32 0
  %6 = load i32, ptr %5, align 8, !tbaa !35
  %7 = icmp slt i32 %6, 0
  %8 = zext i1 %7 to i32
  ret i32 %8
}

; Function Attrs: alwaysinline nounwind uwtable
define internal void @Py_DECREF(ptr noundef %0) #8 {
  %2 = alloca ptr, align 8
  store ptr %0, ptr %2, align 8, !tbaa !3
  %3 = load ptr, ptr %2, align 8, !tbaa !3
  %4 = call i32 @_Py_IsImmortal(ptr noundef %3)
  %5 = icmp ne i32 %4, 0
  br i1 %5, label %6, label %7

6:                                                ; preds = %1
  br label %16

7:                                                ; preds = %1
  %8 = load ptr, ptr %2, align 8, !tbaa !3
  %9 = getelementptr inbounds nuw %struct._object, ptr %8, i32 0, i32 0
  %10 = getelementptr inbounds nuw %struct.anon, ptr %9, i32 0, i32 0
  %11 = load i32, ptr %10, align 8, !tbaa !35
  %12 = add i32 %11, -1
  store i32 %12, ptr %10, align 8, !tbaa !35
  %13 = icmp eq i32 %12, 0
  br i1 %13, label %14, label %16

14:                                               ; preds = %7
  %15 = load ptr, ptr %2, align 8, !tbaa !3
  call void @_Py_Dealloc(ptr noundef %15)
  br label %16

16:                                               ; preds = %6, %14, %7
  ret void
}

; Function Attrs: inlinehint nounwind uwtable
define internal ptr @PyBytes_AS_STRING(ptr noundef %0) #3 {
  %2 = alloca ptr, align 8
  store ptr %0, ptr %2, align 8, !tbaa !3
  %3 = load ptr, ptr %2, align 8, !tbaa !3
  %4 = getelementptr inbounds nuw %struct.PyBytesObject, ptr %3, i32 0, i32 2
  %5 = getelementptr inbounds [1 x i8], ptr %4, i64 0, i64 0
  ret ptr %5
}

; Function Attrs: inlinehint nounwind uwtable
define internal i32 @get_sock_fd(ptr noundef %0) #3 {
  %2 = alloca ptr, align 8
  store ptr %0, ptr %2, align 8, !tbaa !8
  %3 = load ptr, ptr %2, align 8, !tbaa !8
  %4 = getelementptr inbounds nuw %struct.PySocketSockObject, ptr %3, i32 0, i32 1
  %5 = load i32, ptr %4, align 8, !tbaa !113
  ret i32 %5
}

; Function Attrs: nounwind uwtable
define internal ptr @sock_getsockopt(ptr noundef %0, ptr noundef %1) #0 {
  %3 = alloca ptr, align 8
  %4 = alloca ptr, align 8
  %5 = alloca ptr, align 8
  %6 = alloca ptr, align 8
  %7 = alloca i32, align 4
  %8 = alloca i32, align 4
  %9 = alloca i32, align 4
  %10 = alloca ptr, align 8
  %11 = alloca i32, align 4
  %12 = alloca i32, align 4
  %13 = alloca i32, align 4
  %14 = alloca i32, align 4
  %15 = alloca i64, align 8
  store ptr %0, ptr %4, align 8, !tbaa !3
  store ptr %1, ptr %5, align 8, !tbaa !3
  call void @llvm.lifetime.start.p0(i64 8, ptr %6) #10
  %16 = load ptr, ptr %4, align 8, !tbaa !3
  store ptr %16, ptr %6, align 8, !tbaa !8
  call void @llvm.lifetime.start.p0(i64 4, ptr %7) #10
  call void @llvm.lifetime.start.p0(i64 4, ptr %8) #10
  call void @llvm.lifetime.start.p0(i64 4, ptr %9) #10
  call void @llvm.lifetime.start.p0(i64 8, ptr %10) #10
  call void @llvm.lifetime.start.p0(i64 4, ptr %11) #10
  store i32 0, ptr %11, align 4, !tbaa !15
  call void @llvm.lifetime.start.p0(i64 4, ptr %12) #10
  store i32 0, ptr %12, align 4, !tbaa !15
  call void @llvm.lifetime.start.p0(i64 4, ptr %13) #10
  %17 = load ptr, ptr %5, align 8, !tbaa !3
  %18 = call i32 (ptr, ptr, ...) @PyArg_ParseTuple(ptr noundef %17, ptr noundef @.str.601, ptr noundef %7, ptr noundef %8, ptr noundef %11)
  %19 = icmp ne i32 %18, 0
  br i1 %19, label %21, label %20

20:                                               ; preds = %2
  store ptr null, ptr %3, align 8
  store i32 1, ptr %14, align 4
  br label %106

21:                                               ; preds = %2
  %22 = load i32, ptr %11, align 4, !tbaa !15
  %23 = icmp eq i32 %22, 0
  br i1 %23, label %24, label %63

24:                                               ; preds = %21
  %25 = load ptr, ptr %6, align 8, !tbaa !8
  %26 = getelementptr inbounds nuw %struct.PySocketSockObject, ptr %25, i32 0, i32 2
  %27 = load i32, ptr %26, align 4, !tbaa !106
  %28 = icmp eq i32 %27, 40
  br i1 %28, label %29, label %46

29:                                               ; preds = %24
  call void @llvm.lifetime.start.p0(i64 8, ptr %15) #10
  store i64 0, ptr %15, align 8, !tbaa !52
  store i32 8, ptr %13, align 4, !tbaa !15
  %30 = load ptr, ptr %6, align 8, !tbaa !8
  %31 = call i32 @get_sock_fd(ptr noundef %30)
  %32 = load i32, ptr %7, align 4, !tbaa !15
  %33 = load i32, ptr %8, align 4, !tbaa !15
  %34 = call i32 @getsockopt(i32 noundef %31, i32 noundef %32, i32 noundef %33, ptr noundef %15, ptr noundef %13) #10
  store i32 %34, ptr %9, align 4, !tbaa !15
  %35 = load i32, ptr %9, align 4, !tbaa !15
  %36 = icmp slt i32 %35, 0
  br i1 %36, label %37, label %42

37:                                               ; preds = %29
  %38 = load ptr, ptr %6, align 8, !tbaa !8
  %39 = getelementptr inbounds nuw %struct.PySocketSockObject, ptr %38, i32 0, i32 5
  %40 = load ptr, ptr %39, align 8, !tbaa !110
  %41 = call ptr %40()
  store ptr %41, ptr %3, align 8
  store i32 1, ptr %14, align 4
  br label %45

42:                                               ; preds = %29
  %43 = load i64, ptr %15, align 8, !tbaa !52
  %44 = call ptr @PyLong_FromUnsignedLong(i64 noundef %43)
  store ptr %44, ptr %3, align 8
  store i32 1, ptr %14, align 4
  br label %45

45:                                               ; preds = %42, %37
  call void @llvm.lifetime.end.p0(i64 8, ptr %15) #10
  br label %106

46:                                               ; preds = %24
  store i32 4, ptr %13, align 4, !tbaa !15
  %47 = load ptr, ptr %6, align 8, !tbaa !8
  %48 = call i32 @get_sock_fd(ptr noundef %47)
  %49 = load i32, ptr %7, align 4, !tbaa !15
  %50 = load i32, ptr %8, align 4, !tbaa !15
  %51 = call i32 @getsockopt(i32 noundef %48, i32 noundef %49, i32 noundef %50, ptr noundef %12, ptr noundef %13) #10
  store i32 %51, ptr %9, align 4, !tbaa !15
  %52 = load i32, ptr %9, align 4, !tbaa !15
  %53 = icmp slt i32 %52, 0
  br i1 %53, label %54, label %59

54:                                               ; preds = %46
  %55 = load ptr, ptr %6, align 8, !tbaa !8
  %56 = getelementptr inbounds nuw %struct.PySocketSockObject, ptr %55, i32 0, i32 5
  %57 = load ptr, ptr %56, align 8, !tbaa !110
  %58 = call ptr %57()
  store ptr %58, ptr %3, align 8
  store i32 1, ptr %14, align 4
  br label %106

59:                                               ; preds = %46
  %60 = load i32, ptr %12, align 4, !tbaa !15
  %61 = sext i32 %60 to i64
  %62 = call ptr @PyLong_FromLong(i64 noundef %61)
  store ptr %62, ptr %3, align 8
  store i32 1, ptr %14, align 4
  br label %106

63:                                               ; preds = %21
  %64 = load ptr, ptr %6, align 8, !tbaa !8
  %65 = getelementptr inbounds nuw %struct.PySocketSockObject, ptr %64, i32 0, i32 2
  %66 = load i32, ptr %65, align 4, !tbaa !106
  %67 = icmp eq i32 %66, 40
  br i1 %67, label %68, label %70

68:                                               ; preds = %63
  %69 = load ptr, ptr @PyExc_OSError, align 8, !tbaa !3
  call void @PyErr_SetString(ptr noundef %69, ptr noundef @.str.602)
  store ptr null, ptr %3, align 8
  store i32 1, ptr %14, align 4
  br label %106

70:                                               ; preds = %63
  %71 = load i32, ptr %11, align 4, !tbaa !15
  %72 = icmp ule i32 %71, 0
  br i1 %72, label %76, label %73

73:                                               ; preds = %70
  %74 = load i32, ptr %11, align 4, !tbaa !15
  %75 = icmp ugt i32 %74, 1024
  br i1 %75, label %76, label %78

76:                                               ; preds = %73, %70
  %77 = load ptr, ptr @PyExc_OSError, align 8, !tbaa !3
  call void @PyErr_SetString(ptr noundef %77, ptr noundef @.str.603)
  store ptr null, ptr %3, align 8
  store i32 1, ptr %14, align 4
  br label %106

78:                                               ; preds = %73
  %79 = load i32, ptr %11, align 4, !tbaa !15
  %80 = zext i32 %79 to i64
  %81 = call ptr @PyBytes_FromStringAndSize(ptr noundef null, i64 noundef %80)
  store ptr %81, ptr %10, align 8, !tbaa !3
  %82 = load ptr, ptr %10, align 8, !tbaa !3
  %83 = icmp eq ptr %82, null
  br i1 %83, label %84, label %85

84:                                               ; preds = %78
  store ptr null, ptr %3, align 8
  store i32 1, ptr %14, align 4
  br label %106

85:                                               ; preds = %78
  %86 = load ptr, ptr %6, align 8, !tbaa !8
  %87 = call i32 @get_sock_fd(ptr noundef %86)
  %88 = load i32, ptr %7, align 4, !tbaa !15
  %89 = load i32, ptr %8, align 4, !tbaa !15
  %90 = load ptr, ptr %10, align 8, !tbaa !3
  %91 = call ptr @PyBytes_AS_STRING(ptr noundef %90)
  %92 = call i32 @getsockopt(i32 noundef %87, i32 noundef %88, i32 noundef %89, ptr noundef %91, ptr noundef %11) #10
  store i32 %92, ptr %9, align 4, !tbaa !15
  %93 = load i32, ptr %9, align 4, !tbaa !15
  %94 = icmp slt i32 %93, 0
  br i1 %94, label %95, label %101

95:                                               ; preds = %85
  %96 = load ptr, ptr %10, align 8, !tbaa !3
  call void @Py_DECREF(ptr noundef %96)
  %97 = load ptr, ptr %6, align 8, !tbaa !8
  %98 = getelementptr inbounds nuw %struct.PySocketSockObject, ptr %97, i32 0, i32 5
  %99 = load ptr, ptr %98, align 8, !tbaa !110
  %100 = call ptr %99()
  store ptr %100, ptr %3, align 8
  store i32 1, ptr %14, align 4
  br label %106

101:                                              ; preds = %85
  %102 = load i32, ptr %11, align 4, !tbaa !15
  %103 = zext i32 %102 to i64
  %104 = call i32 @_PyBytes_Resize(ptr noundef %10, i64 noundef %103)
  %105 = load ptr, ptr %10, align 8, !tbaa !3
  store ptr %105, ptr %3, align 8
  store i32 1, ptr %14, align 4
  br label %106

106:                                              ; preds = %101, %95, %84, %76, %68, %59, %54, %45, %20
  call void @llvm.lifetime.end.p0(i64 4, ptr %13) #10
  call void @llvm.lifetime.end.p0(i64 4, ptr %12) #10
  call void @llvm.lifetime.end.p0(i64 4, ptr %11) #10
  call void @llvm.lifetime.end.p0(i64 8, ptr %10) #10
  call void @llvm.lifetime.end.p0(i64 4, ptr %9) #10
  call void @llvm.lifetime.end.p0(i64 4, ptr %8) #10
  call void @llvm.lifetime.end.p0(i64 4, ptr %7) #10
  call void @llvm.lifetime.end.p0(i64 8, ptr %6) #10
  %107 = load ptr, ptr %3, align 8
  ret ptr %107
}