; Function Attrs: nounwind uwtable
define internal ptr @sock_getsockopt(ptr noundef readonly captures(none) %0, ptr noundef %1) #0 {
  %3 = alloca i32, align 4
  %4 = alloca i32, align 4
  %5 = alloca ptr, align 8
  %6 = alloca i32, align 4
  %7 = alloca i32, align 4
  %8 = alloca i32, align 4
  %9 = alloca i64, align 8
  call void @llvm.lifetime.start.p0(i64 4, ptr nonnull %3) #13
  call void @llvm.lifetime.start.p0(i64 4, ptr nonnull %4) #13
  call void @llvm.lifetime.start.p0(i64 8, ptr nonnull %5) #13
  call void @llvm.lifetime.start.p0(i64 4, ptr nonnull %6) #13
  store i32 0, ptr %6, align 4, !tbaa !35
  call void @llvm.lifetime.start.p0(i64 4, ptr nonnull %7) #13
  store i32 0, ptr %7, align 4, !tbaa !35
  call void @llvm.lifetime.start.p0(i64 4, ptr nonnull %8) #13
  %10 = call i32 (ptr, ptr, ...) @PyArg_ParseTuple(ptr noundef %1, ptr noundef nonnull @.str.601, ptr noundef nonnull %3, ptr noundef nonnull %4, ptr noundef nonnull %6) #13
  %.not = icmp eq i32 %10, 0
  br i1 %.not, label %78, label %11

11:                                               ; preds = %2
  %12 = load i32, ptr %6, align 4, !tbaa !35
  %13 = icmp eq i32 %12, 0
  %14 = getelementptr inbounds nuw i8, ptr %0, i64 20
  %15 = load i32, ptr %14, align 4, !tbaa !86
  %16 = icmp eq i32 %15, 40
  br i1 %13, label %17, label %46

17:                                               ; preds = %11
  br i1 %16, label %18, label %32

18:                                               ; preds = %17
  call void @llvm.lifetime.start.p0(i64 8, ptr nonnull %9) #13
  store i64 0, ptr %9, align 8, !tbaa !47
  store i32 8, ptr %8, align 4, !tbaa !35
  %19 = getelementptr i8, ptr %0, i64 16
  %.val16 = load i32, ptr %19, align 8, !tbaa !83
  %20 = load i32, ptr %3, align 4, !tbaa !35
  %21 = load i32, ptr %4, align 4, !tbaa !35
  %22 = call i32 @getsockopt(i32 noundef %.val16, i32 noundef %20, i32 noundef %21, ptr noundef nonnull %9, ptr noundef nonnull %8) #13
  %23 = icmp slt i32 %22, 0
  br i1 %23, label %24, label %28

24:                                               ; preds = %18
  %25 = getelementptr inbounds nuw i8, ptr %0, i64 32
  %26 = load ptr, ptr %25, align 8, !tbaa !89
  %27 = call ptr %26() #13
  br label %31

28:                                               ; preds = %18
  %29 = load i64, ptr %9, align 8, !tbaa !47
  %30 = call ptr @PyLong_FromUnsignedLong(i64 noundef %29) #13
  br label %31

31:                                               ; preds = %28, %24
  %.1 = phi ptr [ %27, %24 ], [ %30, %28 ]
  call void @llvm.lifetime.end.p0(i64 8, ptr nonnull %9) #13
  br label %78

32:                                               ; preds = %17
  store i32 4, ptr %8, align 4, !tbaa !35
  %33 = getelementptr i8, ptr %0, i64 16
  %.val15 = load i32, ptr %33, align 8, !tbaa !83
  %34 = load i32, ptr %3, align 4, !tbaa !35
  %35 = load i32, ptr %4, align 4, !tbaa !35
  %36 = call i32 @getsockopt(i32 noundef %.val15, i32 noundef %34, i32 noundef %35, ptr noundef nonnull %7, ptr noundef nonnull %8) #13
  %37 = icmp slt i32 %36, 0
  br i1 %37, label %38, label %42

38:                                               ; preds = %32
  %39 = getelementptr inbounds nuw i8, ptr %0, i64 32
  %40 = load ptr, ptr %39, align 8, !tbaa !89
  %41 = call ptr %40() #13
  br label %78

42:                                               ; preds = %32
  %43 = load i32, ptr %7, align 4, !tbaa !35
  %44 = sext i32 %43 to i64
  %45 = call ptr @PyLong_FromLong(i64 noundef %44) #13
  br label %78

46:                                               ; preds = %11
  br i1 %16, label %47, label %49

47:                                               ; preds = %46
  %48 = load ptr, ptr @PyExc_OSError, align 8, !tbaa !19
  call void @PyErr_SetString(ptr noundef %48, ptr noundef nonnull @.str.602) #13
  br label %78

49:                                               ; preds = %46
  %50 = icmp ugt i32 %12, 1024
  br i1 %50, label %51, label %53

51:                                               ; preds = %49
  %52 = load ptr, ptr @PyExc_OSError, align 8, !tbaa !19
  call void @PyErr_SetString(ptr noundef %52, ptr noundef nonnull @.str.603) #13
  br label %78

53:                                               ; preds = %49
  %54 = zext nneg i32 %12 to i64
  %55 = call ptr @PyBytes_FromStringAndSize(ptr noundef null, i64 noundef %54) #13
  store ptr %55, ptr %5, align 8, !tbaa !19
  %56 = icmp eq ptr %55, null
  br i1 %56, label %78, label %57

57:                                               ; preds = %53
  %58 = getelementptr i8, ptr %0, i64 16
  %.val = load i32, ptr %58, align 8, !tbaa !83
  %59 = load i32, ptr %3, align 4, !tbaa !35
  %60 = load i32, ptr %4, align 4, !tbaa !35
  %61 = getelementptr inbounds nuw i8, ptr %55, i64 32
  %62 = call i32 @getsockopt(i32 noundef %.val, i32 noundef %59, i32 noundef %60, ptr noundef nonnull %61, ptr noundef nonnull %6) #13
  %63 = icmp slt i32 %62, 0
  br i1 %63, label %64, label %73

64:                                               ; preds = %57
  %65 = load i32, ptr %55, align 8, !tbaa !18
  %.not.i = icmp sgt i32 %65, -1
  br i1 %.not.i, label %66, label %Py_DECREF.exit

66:                                               ; preds = %64
  %67 = add nsw i32 %65, -1
  store i32 %67, ptr %55, align 8, !tbaa !18
  %68 = icmp eq i32 %67, 0
  br i1 %68, label %69, label %Py_DECREF.exit

69:                                               ; preds = %66
  call void @_Py_Dealloc(ptr noundef nonnull %55) #13
  br label %Py_DECREF.exit

Py_DECREF.exit:                                   ; preds = %64, %66, %69
  %70 = getelementptr inbounds nuw i8, ptr %0, i64 32
  %71 = load ptr, ptr %70, align 8, !tbaa !89
  %72 = call ptr %71() #13
  br label %78

73:                                               ; preds = %57
  %74 = load i32, ptr %6, align 4, !tbaa !35
  %75 = zext i32 %74 to i64
  %76 = call i32 @_PyBytes_Resize(ptr noundef nonnull %5, i64 noundef %75) #13
  %77 = load ptr, ptr %5, align 8, !tbaa !19
  br label %78

78:                                               ; preds = %53, %2, %73, %Py_DECREF.exit, %51, %47, %42, %38, %31
  %.0 = phi ptr [ %.1, %31 ], [ %41, %38 ], [ %45, %42 ], [ null, %47 ], [ null, %51 ], [ %72, %Py_DECREF.exit ], [ %77, %73 ], [ null, %2 ], [ null, %53 ]
  call void @llvm.lifetime.end.p0(i64 4, ptr nonnull %8) #13
  call void @llvm.lifetime.end.p0(i64 4, ptr nonnull %7) #13
  call void @llvm.lifetime.end.p0(i64 4, ptr nonnull %6) #13
  call void @llvm.lifetime.end.p0(i64 8, ptr nonnull %5) #13
  call void @llvm.lifetime.end.p0(i64 4, ptr nonnull %4) #13
  call void @llvm.lifetime.end.p0(i64 4, ptr nonnull %3) #13
  ret ptr %.0
}